target datalayout = "e-m:e-p270:32:32-p271:32:32-p272:64:64-i64:64-i128:128-f80:128-n8:16:32:64-S128"
target triple = "x86_64-unknown-linux-gnu"

%"class.sat::constraint_base" = type { ptr, [0 x i32] }

; Function Attrs: mustprogress nounwind uwtable
define linkonce_odr hidden noundef ptr @_ZN3sat15constraint_base10from_indexEm(i64 noundef %s) #4 comdat align 2 {
entry:
  %s.addr = alloca i64, align 8
  store i64 %s, ptr %s.addr, align 8
  %0 = load i64, ptr %s.addr, align 8
  %1 = inttoptr i64 %0 to ptr
  ret ptr %1
}

; Function Attrs: mustprogress uwtable
define linkonce_odr hidden noundef ptr @_ZN3sat15constraint_base12to_extensionEm(i64 noundef %s) #5 comdat align 2 {
entry:
  %s.addr = alloca i64, align 8
  store i64 %s, ptr %s.addr, align 8
  %0 = load i64, ptr %s.addr, align 8
  %call = call noundef ptr @_ZN3sat15constraint_base10from_indexEm(i64 noundef %0)
  %m_ex = getelementptr inbounds %"class.sat::constraint_base", ptr %call, i32 0, i32 0
  %1 = load ptr, ptr %m_ex, align 8
  ret ptr %1
}

; Function Attrs: mustprogress uwtable
define hidden noundef zeroext i1 @_ZN3euf6solver18is_extended_binaryEmR7svectorIN3sat7literalEjE(ptr noundef nonnull align 8 dereferenceable(9136) %this, i64 noundef %idx, ptr noundef nonnull align 8 dereferenceable(8) %r) unnamed_addr #5 align 2 {
entry:
  %this.addr = alloca ptr, align 8
  %idx.addr = alloca i64, align 8
  %r.addr = alloca ptr, align 8
  %ext = alloca ptr, align 8
  store ptr %this, ptr %this.addr, align 8
  store i64 %idx, ptr %idx.addr, align 8
  store ptr %r, ptr %r.addr, align 8
  %this1 = load ptr, ptr %this.addr, align 8
  %0 = load i64, ptr %idx.addr, align 8
  %call = call noundef ptr @_ZN3sat15constraint_base12to_extensionEm(i64 noundef %0)
  store ptr %call, ptr %ext, align 8
  %1 = load ptr, ptr %ext, align 8
  %cmp = icmp ne ptr %1, %this1
  br i1 %cmp, label %land.rhs, label %land.end

land.rhs:                                         ; preds = %entry
  %2 = load ptr, ptr %ext, align 8
  %3 = load i64, ptr %idx.addr, align 8
  %4 = load ptr, ptr %r.addr, align 8
  %vtable = load ptr, ptr %2, align 8
  %vfn = getelementptr inbounds ptr, ptr %vtable, i64 11
  %5 = load ptr, ptr %vfn, align 8
  %call2 = call noundef zeroext i1 %5(ptr noundef nonnull align 8 dereferenceable(32) %2, i64 noundef %3, ptr noundef nonnull align 8 dereferenceable(8) %4)
  br label %land.end

land.end:                                         ; preds = %land.rhs, %entry
  %6 = phi i1 [ false, %entry ], [ %call2, %land.rhs ]
  ret i1 %6
}