; Function Attrs: mustprogress uwtable
define hidden noundef zeroext i1 @_ZN3euf6solver18is_extended_binaryEmR7svectorIN3sat7literalEjE(ptr noundef nonnull readnone align 8 dereferenceable(9136) %this, i64 noundef %idx, ptr noundef nonnull align 8 dereferenceable(8) %r) unnamed_addr #3 align 2 {
entry:
  %0 = inttoptr i64 %idx to ptr
  %1 = load ptr, ptr %0, align 8
  %cmp.not = icmp eq ptr %1, %this
  br i1 %cmp.not, label %land.end, label %land.rhs

land.rhs:                                         ; preds = %entry
  %vtable = load ptr, ptr %1, align 8
  %vfn = getelementptr inbounds i8, ptr %vtable, i64 88
  %2 = load ptr, ptr %vfn, align 8
  %call2 = tail call noundef zeroext i1 %2(ptr noundef nonnull align 8 dereferenceable(32) %1, i64 noundef %idx, ptr noundef nonnull align 8 dereferenceable(8) %r)
  br label %land.end

land.end:                                         ; preds = %land.rhs, %entry
  %3 = phi i1 [ false, %entry ], [ %call2, %land.rhs ]
  ret i1 %3
}